; Function Attrs: nounwind uwtable
define internal ptr @readline_set_completer_delims(ptr readnone captures(none) %0, ptr noundef %1) #0 {
  %3 = tail call ptr @PyUnicode_EncodeLocale(ptr noundef %1, ptr noundef nonnull @.str.34) #14
  %4 = icmp eq ptr %3, null
  br i1 %4, label %19, label %5

5:                                                ; preds = %2
  %6 = getelementptr inbounds nuw i8, ptr %3, i64 32
  %7 = tail call noalias ptr @strdup(ptr noundef nonnull %6) #14
  %8 = load i32, ptr %3, align 8, !tbaa !25
  %.not.i = icmp sgt i32 %8, -1
  br i1 %.not.i, label %9, label %Py_DECREF.exit

9:                                                ; preds = %5
  %10 = add nsw i32 %8, -1
  store i32 %10, ptr %3, align 8, !tbaa !25
  %11 = icmp eq i32 %10, 0
  br i1 %11, label %12, label %Py_DECREF.exit

12:                                               ; preds = %9
  tail call void @_Py_Dealloc(ptr noundef nonnull %3) #14
  br label %Py_DECREF.exit

Py_DECREF.exit:                                   ; preds = %5, %9, %12
  %.not = icmp eq ptr %7, null
  br i1 %.not, label %17, label %13

13:                                               ; preds = %Py_DECREF.exit
  %14 = load ptr, ptr @completer_word_break_characters, align 8, !tbaa !3
  tail call void @free(ptr noundef %14) #14
  store ptr %7, ptr @completer_word_break_characters, align 8, !tbaa !3
  %.b = load i1, ptr @using_libedit_emulation, align 4
  br i1 %.b, label %15, label %16

15:                                               ; preds = %13
  store ptr %7, ptr @rl_basic_word_break_characters, align 8, !tbaa !3
  br label %16

16:                                               ; preds = %15, %13
  store ptr %7, ptr @rl_completer_word_break_characters, align 8, !tbaa !3
  br label %19

17:                                               ; preds = %Py_DECREF.exit
  %18 = tail call ptr @PyErr_NoMemory() #14
  br label %19

19:                                               ; preds = %2, %17, %16
  %.0 = phi ptr [ @_Py_NoneStruct, %16 ], [ %18, %17 ], [ null, %2 ]
  ret ptr %.0
}